; ModuleID = '64/2635.c'
source_filename = "64/2635.c"
target datalayout = "e-m:e-p270:32:32-p271:32:32-p272:64:64-i64:64-f80:128-n8:16:32:64-S128"
target triple = "x86_64-pc-linux-gnu"

@.str = private unnamed_addr constant [3 x i8] c"%d\00", align 1
@.str.1 = private unnamed_addr constant [7 x i8] c"%d%d%d\00", align 1
@.str.2 = private unnamed_addr constant [28 x i8] c"(%d,%d,%d)-(%d,%d,%d)=%.2f\0A\00", align 1

; Function Attrs: noinline nounwind uwtable
define dso_local void @main() #0 {
  %1 = alloca i32, align 4
  %2 = alloca i32, align 4
  %3 = alloca i32, align 4
  %4 = alloca i32, align 4
  %5 = alloca i32, align 4
  %6 = alloca i32, align 4
  %7 = alloca [10 x i32], align 16
  %8 = alloca [10 x i32], align 16
  %9 = alloca [10 x i32], align 16
  %10 = alloca [45 x i32], align 16
  %11 = alloca [45 x i32], align 16
  %12 = alloca [45 x float], align 16
  %13 = alloca float, align 4
  %14 = alloca float, align 4
  %15 = call i32 (i8*, ...) @__isoc99_scanf(i8* getelementptr inbounds ([3 x i8], [3 x i8]* @.str, i64 0, i64 0), i32* %1)
  store i32 0, i32* %2, align 4
  br label %16

16:                                               ; preds = %31, %0
  %17 = load i32, i32* %2, align 4
  %18 = load i32, i32* %1, align 4
  %19 = icmp slt i32 %17, %18
  br i1 %19, label %20, label %34

20:                                               ; preds = %16
  %21 = load i32, i32* %2, align 4
  %22 = sext i32 %21 to i64
  %23 = getelementptr inbounds [10 x i32], [10 x i32]* %7, i64 0, i64 %22
  %24 = load i32, i32* %2, align 4
  %25 = sext i32 %24 to i64
  %26 = getelementptr inbounds [10 x i32], [10 x i32]* %8, i64 0, i64 %25
  %27 = load i32, i32* %2, align 4
  %28 = sext i32 %27 to i64
  %29 = getelementptr inbounds [10 x i32], [10 x i32]* %9, i64 0, i64 %28
  %30 = call i32 (i8*, ...) @__isoc99_scanf(i8* getelementptr inbounds ([7 x i8], [7 x i8]* @.str.1, i64 0, i64 0), i32* %23, i32* %26, i32* %29)
  br label %31

31:                                               ; preds = %20
  %32 = load i32, i32* %2, align 4
  %33 = add nsw i32 %32, 1
  store i32 %33, i32* %2, align 4
  br label %16

34:                                               ; preds = %16
  store i32 0, i32* %4, align 4
  store i32 0, i32* %2, align 4
  br label %35

35:                                               ; preds = %129, %34
  %36 = load i32, i32* %2, align 4
  %37 = load i32, i32* %1, align 4
  %38 = sub nsw i32 %37, 1
  %39 = icmp slt i32 %36, %38
  br i1 %39, label %40, label %132

40:                                               ; preds = %35
  %41 = load i32, i32* %2, align 4
  %42 = add nsw i32 %41, 1
  store i32 %42, i32* %3, align 4
  br label %43

43:                                               ; preds = %125, %40
  %44 = load i32, i32* %3, align 4
  %45 = load i32, i32* %1, align 4
  %46 = icmp slt i32 %44, %45
  br i1 %46, label %47, label %128

47:                                               ; preds = %43
  %48 = load i32, i32* %2, align 4
  %49 = sext i32 %48 to i64
  %50 = getelementptr inbounds [10 x i32], [10 x i32]* %7, i64 0, i64 %49
  %51 = load i32, i32* %50, align 4
  %52 = load i32, i32* %3, align 4
  %53 = sext i32 %52 to i64
  %54 = getelementptr inbounds [10 x i32], [10 x i32]* %7, i64 0, i64 %53
  %55 = load i32, i32* %54, align 4
  %56 = sub nsw i32 %51, %55
  %57 = load i32, i32* %2, align 4
  %58 = sext i32 %57 to i64
  %59 = getelementptr inbounds [10 x i32], [10 x i32]* %7, i64 0, i64 %58
  %60 = load i32, i32* %59, align 4
  %61 = load i32, i32* %3, align 4
  %62 = sext i32 %61 to i64
  %63 = getelementptr inbounds [10 x i32], [10 x i32]* %7, i64 0, i64 %62
  %64 = load i32, i32* %63, align 4
  %65 = sub nsw i32 %60, %64
  %66 = mul nsw i32 %56, %65
  %67 = load i32, i32* %2, align 4
  %68 = sext i32 %67 to i64
  %69 = getelementptr inbounds [10 x i32], [10 x i32]* %8, i64 0, i64 %68
  %70 = load i32, i32* %69, align 4
  %71 = load i32, i32* %3, align 4
  %72 = sext i32 %71 to i64
  %73 = getelementptr inbounds [10 x i32], [10 x i32]* %8, i64 0, i64 %72
  %74 = load i32, i32* %73, align 4
  %75 = sub nsw i32 %70, %74
  %76 = load i32, i32* %2, align 4
  %77 = sext i32 %76 to i64
  %78 = getelementptr inbounds [10 x i32], [10 x i32]* %8, i64 0, i64 %77
  %79 = load i32, i32* %78, align 4
  %80 = load i32, i32* %3, align 4
  %81 = sext i32 %80 to i64
  %82 = getelementptr inbounds [10 x i32], [10 x i32]* %8, i64 0, i64 %81
  %83 = load i32, i32* %82, align 4
  %84 = sub nsw i32 %79, %83
  %85 = mul nsw i32 %75, %84
  %86 = add nsw i32 %66, %85
  %87 = load i32, i32* %2, align 4
  %88 = sext i32 %87 to i64
  %89 = getelementptr inbounds [10 x i32], [10 x i32]* %9, i64 0, i64 %88
  %90 = load i32, i32* %89, align 4
  %91 = load i32, i32* %3, align 4
  %92 = sext i32 %91 to i64
  %93 = getelementptr inbounds [10 x i32], [10 x i32]* %9, i64 0, i64 %92
  %94 = load i32, i32* %93, align 4
  %95 = sub nsw i32 %90, %94
  %96 = load i32, i32* %2, align 4
  %97 = sext i32 %96 to i64
  %98 = getelementptr inbounds [10 x i32], [10 x i32]* %9, i64 0, i64 %97
  %99 = load i32, i32* %98, align 4
  %100 = load i32, i32* %3, align 4
  %101 = sext i32 %100 to i64
  %102 = getelementptr inbounds [10 x i32], [10 x i32]* %9, i64 0, i64 %101
  %103 = load i32, i32* %102, align 4
  %104 = sub nsw i32 %99, %103
  %105 = mul nsw i32 %95, %104
  %106 = add nsw i32 %86, %105
  %107 = sitofp i32 %106 to float
  store float %107, float* %13, align 4
  %108 = load i32, i32* %2, align 4
  %109 = load i32, i32* %4, align 4
  %110 = sext i32 %109 to i64
  %111 = getelementptr inbounds [45 x i32], [45 x i32]* %10, i64 0, i64 %110
  store i32 %108, i32* %111, align 4
  %112 = load i32, i32* %3, align 4
  %113 = load i32, i32* %4, align 4
  %114 = sext i32 %113 to i64
  %115 = getelementptr inbounds [45 x i32], [45 x i32]* %11, i64 0, i64 %114
  store i32 %112, i32* %115, align 4
  %116 = load float, float* %13, align 4
  %117 = fpext float %116 to double
  %118 = call double @sqrt(double %117) #3
  %119 = fptrunc double %118 to float
  %120 = load i32, i32* %4, align 4
  %121 = sext i32 %120 to i64
  %122 = getelementptr inbounds [45 x float], [45 x float]* %12, i64 0, i64 %121
  store float %119, float* %122, align 4
  %123 = load i32, i32* %4, align 4
  %124 = add nsw i32 %123, 1
  store i32 %124, i32* %4, align 4
  br label %125

125:                                              ; preds = %47
  %126 = load i32, i32* %3, align 4
  %127 = add nsw i32 %126, 1
  store i32 %127, i32* %3, align 4
  br label %43

128:                                              ; preds = %43
  br label %129

129:                                              ; preds = %128
  %130 = load i32, i32* %2, align 4
  %131 = add nsw i32 %130, 1
  store i32 %131, i32* %2, align 4
  br label %35

132:                                              ; preds = %35
  %133 = load i32, i32* %4, align 4
  %134 = sub nsw i32 %133, 1
  store i32 %134, i32* %2, align 4
  br label %135

135:                                              ; preds = %216, %132
  %136 = load i32, i32* %2, align 4
  %137 = icmp sge i32 %136, 0
  br i1 %137, label %138, label %219

138:                                              ; preds = %135
  %139 = load i32, i32* %4, align 4
  %140 = sub nsw i32 %139, 1
  store i32 %140, i32* %3, align 4
  br label %141

141:                                              ; preds = %212, %138
  %142 = load i32, i32* %3, align 4
  %143 = load i32, i32* %4, align 4
  %144 = load i32, i32* %2, align 4
  %145 = sub nsw i32 %143, %144
  %146 = sub nsw i32 %145, 1
  %147 = icmp sge i32 %142, %146
  br i1 %147, label %148, label %215

148:                                              ; preds = %141
  %149 = load i32, i32* %3, align 4
  %150 = add nsw i32 %149, 1
  %151 = sext i32 %150 to i64
  %152 = getelementptr inbounds [45 x float], [45 x float]* %12, i64 0, i64 %151
  %153 = load float, float* %152, align 4
  %154 = load i32, i32* %3, align 4
  %155 = sext i32 %154 to i64
  %156 = getelementptr inbounds [45 x float], [45 x float]* %12, i64 0, i64 %155
  %157 = load float, float* %156, align 4
  %158 = fcmp ogt float %153, %157
  br i1 %158, label %159, label %211

159:                                              ; preds = %148
  %160 = load i32, i32* %3, align 4
  %161 = sext i32 %160 to i64
  %162 = getelementptr inbounds [45 x float], [45 x float]* %12, i64 0, i64 %161
  %163 = load float, float* %162, align 4
  store float %163, float* %14, align 4
  %164 = load i32, i32* %3, align 4
  %165 = add nsw i32 %164, 1
  %166 = sext i32 %165 to i64
  %167 = getelementptr inbounds [45 x float], [45 x float]* %12, i64 0, i64 %166
  %168 = load float, float* %167, align 4
  %169 = load i32, i32* %3, align 4
  %170 = sext i32 %169 to i64
  %171 = getelementptr inbounds [45 x float], [45 x float]* %12, i64 0, i64 %170
  store float %168, float* %171, align 4
  %172 = load float, float* %14, align 4
  %173 = load i32, i32* %3, align 4
  %174 = add nsw i32 %173, 1
  %175 = sext i32 %174 to i64
  %176 = getelementptr inbounds [45 x float], [45 x float]* %12, i64 0, i64 %175
  store float %172, float* %176, align 4
  %177 = load i32, i32* %3, align 4
  %178 = sext i32 %177 to i64
  %179 = getelementptr inbounds [45 x i32], [45 x i32]* %10, i64 0, i64 %178
  %180 = load i32, i32* %179, align 4
  store i32 %180, i32* %5, align 4
  %181 = load i32, i32* %3, align 4
  %182 = add nsw i32 %181, 1
  %183 = sext i32 %182 to i64
  %184 = getelementptr inbounds [45 x i32], [45 x i32]* %10, i64 0, i64 %183
  %185 = load i32, i32* %184, align 4
  %186 = load i32, i32* %3, align 4
  %187 = sext i32 %186 to i64
  %188 = getelementptr inbounds [45 x i32], [45 x i32]* %10, i64 0, i64 %187
  store i32 %185, i32* %188, align 4
  %189 = load i32, i32* %5, align 4
  %190 = load i32, i32* %3, align 4
  %191 = add nsw i32 %190, 1
  %192 = sext i32 %191 to i64
  %193 = getelementptr inbounds [45 x i32], [45 x i32]* %10, i64 0, i64 %192
  store i32 %189, i32* %193, align 4
  %194 = load i32, i32* %3, align 4
  %195 = sext i32 %194 to i64
  %196 = getelementptr inbounds [45 x i32], [45 x i32]* %11, i64 0, i64 %195
  %197 = load i32, i32* %196, align 4
  store i32 %197, i32* %6, align 4
  %198 = load i32, i32* %3, align 4
  %199 = add nsw i32 %198, 1
  %200 = sext i32 %199 to i64
  %201 = getelementptr inbounds [45 x i32], [45 x i32]* %11, i64 0, i64 %200
  %202 = load i32, i32* %201, align 4
  %203 = load i32, i32* %3, align 4
  %204 = sext i32 %203 to i64
  %205 = getelementptr inbounds [45 x i32], [45 x i32]* %11, i64 0, i64 %204
  store i32 %202, i32* %205, align 4
  %206 = load i32, i32* %6, align 4
  %207 = load i32, i32* %3, align 4
  %208 = add nsw i32 %207, 1
  %209 = sext i32 %208 to i64
  %210 = getelementptr inbounds [45 x i32], [45 x i32]* %11, i64 0, i64 %209
  store i32 %206, i32* %210, align 4
  br label %211

211:                                              ; preds = %159, %148
  br label %212

212:                                              ; preds = %211
  %213 = load i32, i32* %3, align 4
  %214 = add nsw i32 %213, -1
  store i32 %214, i32* %3, align 4
  br label %141

215:                                              ; preds = %141
  br label %216

216:                                              ; preds = %215
  %217 = load i32, i32* %2, align 4
  %218 = add nsw i32 %217, -1
  store i32 %218, i32* %2, align 4
  br label %135

219:                                              ; preds = %135
  store i32 0, i32* %2, align 4
  br label %220

220:                                              ; preds = %263, %219
  %221 = load i32, i32* %2, align 4
  %222 = load i32, i32* %4, align 4
  %223 = icmp slt i32 %221, %222
  br i1 %223, label %224, label %266

224:                                              ; preds = %220
  %225 = load i32, i32* %2, align 4
  %226 = sext i32 %225 to i64
  %227 = getelementptr inbounds [45 x i32], [45 x i32]* %10, i64 0, i64 %226
  %228 = load i32, i32* %227, align 4
  store i32 %228, i32* %5, align 4
  %229 = load i32, i32* %2, align 4
  %230 = sext i32 %229 to i64
  %231 = getelementptr inbounds [45 x i32], [45 x i32]* %11, i64 0, i64 %230
  %232 = load i32, i32* %231, align 4
  store i32 %232, i32* %6, align 4
  %233 = load i32, i32* %5, align 4
  %234 = sext i32 %233 to i64
  %235 = getelementptr inbounds [10 x i32], [10 x i32]* %7, i64 0, i64 %234
  %236 = load i32, i32* %235, align 4
  %237 = load i32, i32* %5, align 4
  %238 = sext i32 %237 to i64
  %239 = getelementptr inbounds [10 x i32], [10 x i32]* %8, i64 0, i64 %238
  %240 = load i32, i32* %239, align 4
  %241 = load i32, i32* %5, align 4
  %242 = sext i32 %241 to i64
  %243 = getelementptr inbounds [10 x i32], [10 x i32]* %9, i64 0, i64 %242
  %244 = load i32, i32* %243, align 4
  %245 = load i32, i32* %6, align 4
  %246 = sext i32 %245 to i64
  %247 = getelementptr inbounds [10 x i32], [10 x i32]* %7, i64 0, i64 %246
  %248 = load i32, i32* %247, align 4
  %249 = load i32, i32* %6, align 4
  %250 = sext i32 %249 to i64
  %251 = getelementptr inbounds [10 x i32], [10 x i32]* %8, i64 0, i64 %250
  %252 = load i32, i32* %251, align 4
  %253 = load i32, i32* %6, align 4
  %254 = sext i32 %253 to i64
  %255 = getelementptr inbounds [10 x i32], [10 x i32]* %9, i64 0, i64 %254
  %256 = load i32, i32* %255, align 4
  %257 = load i32, i32* %2, align 4
  %258 = sext i32 %257 to i64
  %259 = getelementptr inbounds [45 x float], [45 x float]* %12, i64 0, i64 %258
  %260 = load float, float* %259, align 4
  %261 = fpext float %260 to double
  %262 = call i32 (i8*, ...) @printf(i8* getelementptr inbounds ([28 x i8], [28 x i8]* @.str.2, i64 0, i64 0), i32 %236, i32 %240, i32 %244, i32 %248, i32 %252, i32 %256, double %261)
  br label %263

263:                                              ; preds = %224
  %264 = load i32, i32* %2, align 4
  %265 = add nsw i32 %264, 1
  store i32 %265, i32* %2, align 4
  br label %220

266:                                              ; preds = %220
  ret void
}

declare dso_local i32 @__isoc99_scanf(i8*, ...) #1

; Function Attrs: nounwind
declare dso_local double @sqrt(double) #2

declare dso_local i32 @printf(i8*, ...) #1


!llvm.module.flags = !{!0}
!llvm.ident = !{!1}

!0 = !{i32 1, !"wchar_size", i32 4}
!1 = !{!"clang version 10.0.0-4ubuntu1 "}
